target datalayout = "e-m:e-p270:32:32-p271:32:32-p272:64:64-i64:64-i128:128-f80:128-n8:16:32:64-S128"
target triple = "x86_64-pc-linux-gnu"

%"class.gmx::internal::AnalysisDataStorageImpl" = type <{ ptr, ptr, i32, i32, %"class.std::vector", i64, i32, [4 x i8], %"class.std::vector.0", i32, [4 x i8] }>
%"class.std::vector" = type { %"struct.std::_Vector_base" }
%"struct.std::_Vector_base" = type { %"struct.std::_Vector_base<std::unique_ptr<gmx::internal::AnalysisDataStorageFrameData>, std::allocator<std::unique_ptr<gmx::internal::AnalysisDataStorageFrameData>>>::_Vector_impl" }
%"struct.std::_Vector_base<std::unique_ptr<gmx::internal::AnalysisDataStorageFrameData>, std::allocator<std::unique_ptr<gmx::internal::AnalysisDataStorageFrameData>>>::_Vector_impl" = type { %"struct.std::_Vector_base<std::unique_ptr<gmx::internal::AnalysisDataStorageFrameData>, std::allocator<std::unique_ptr<gmx::internal::AnalysisDataStorageFrameData>>>::_Vector_impl_data" }
%"struct.std::_Vector_base<std::unique_ptr<gmx::internal::AnalysisDataStorageFrameData>, std::allocator<std::unique_ptr<gmx::internal::AnalysisDataStorageFrameData>>>::_Vector_impl_data" = type { ptr, ptr, ptr }
%"class.std::vector.0" = type { %"struct.std::_Vector_base.1" }
%"struct.std::_Vector_base.1" = type { %"struct.std::_Vector_base<std::unique_ptr<gmx::AnalysisDataStorageFrame>, std::allocator<std::unique_ptr<gmx::AnalysisDataStorageFrame>>>::_Vector_impl" }
%"struct.std::_Vector_base<std::unique_ptr<gmx::AnalysisDataStorageFrame>, std::allocator<std::unique_ptr<gmx::AnalysisDataStorageFrame>>>::_Vector_impl" = type { %"struct.std::_Vector_base<std::unique_ptr<gmx::AnalysisDataStorageFrame>, std::allocator<std::unique_ptr<gmx::AnalysisDataStorageFrame>>>::_Vector_impl_data" }
%"struct.std::_Vector_base<std::unique_ptr<gmx::AnalysisDataStorageFrame>, std::allocator<std::unique_ptr<gmx::AnalysisDataStorageFrame>>>::_Vector_impl_data" = type { ptr, ptr, ptr }
%"class.gmx::AnalysisDataStorage" = type { %"class.std::unique_ptr.86" }
%"class.std::unique_ptr.86" = type { %"struct.std::__uniq_ptr_data.87" }
%"struct.std::__uniq_ptr_data.87" = type { %"class.std::__uniq_ptr_impl.88" }
%"class.std::__uniq_ptr_impl.88" = type { %"class.std::tuple.89" }
%"class.std::tuple.89" = type { %"struct.std::_Tuple_impl.90" }
%"struct.std::_Tuple_impl.90" = type { %"struct.std::_Head_base.93" }
%"struct.std::_Head_base.93" = type { ptr }

; Function Attrs: mustprogress nounwind uwtable
define linkonce_odr noundef nonnull align 8 dereferenceable(8) ptr @_ZNSt10_Head_baseILm0EPN3gmx8internal23AnalysisDataStorageImplELb0EE7_M_headERKS4_(ptr noundef nonnull align 8 dereferenceable(8) %0) #0 comdat align 2 {
  %2 = alloca ptr, align 8
  store ptr %0, ptr %2, align 8
  %3 = load ptr, ptr %2, align 8
  %4 = getelementptr inbounds %"struct.std::_Head_base.93", ptr %3, i32 0, i32 0
  ret ptr %4
}

; Function Attrs: mustprogress nounwind uwtable
define linkonce_odr noundef nonnull align 8 dereferenceable(8) ptr @_ZNSt11_Tuple_implILm0EJPN3gmx8internal23AnalysisDataStorageImplESt14default_deleteIS2_EEE7_M_headERKS6_(ptr noundef nonnull align 8 dereferenceable(8) %0) #0 comdat align 2 {
  %2 = alloca ptr, align 8
  store ptr %0, ptr %2, align 8
  %3 = load ptr, ptr %2, align 8
  %4 = call noundef nonnull align 8 dereferenceable(8) ptr @_ZNSt10_Head_baseILm0EPN3gmx8internal23AnalysisDataStorageImplELb0EE7_M_headERKS4_(ptr noundef nonnull align 8 dereferenceable(8) %3) #12
  ret ptr %4
}

; Function Attrs: mustprogress nounwind uwtable
define linkonce_odr noundef nonnull align 8 dereferenceable(8) ptr @_ZSt12__get_helperILm0EPN3gmx8internal23AnalysisDataStorageImplEJSt14default_deleteIS2_EEERKT0_RKSt11_Tuple_implIXT_EJS6_DpT1_EE(ptr noundef nonnull align 8 dereferenceable(8) %0) #0 comdat {
  %2 = alloca ptr, align 8
  store ptr %0, ptr %2, align 8
  %3 = load ptr, ptr %2, align 8
  %4 = call noundef nonnull align 8 dereferenceable(8) ptr @_ZNSt11_Tuple_implILm0EJPN3gmx8internal23AnalysisDataStorageImplESt14default_deleteIS2_EEE7_M_headERKS6_(ptr noundef nonnull align 8 dereferenceable(8) %3) #12
  ret ptr %4
}

; Function Attrs: mustprogress nounwind uwtable
define linkonce_odr noundef nonnull align 8 dereferenceable(8) ptr @_ZSt3getILm0EJPN3gmx8internal23AnalysisDataStorageImplESt14default_deleteIS2_EEERKNSt13tuple_elementIXT_ESt5tupleIJDpT0_EEE4typeERKSA_(ptr noundef nonnull align 8 dereferenceable(8) %0) #0 comdat {
  %2 = alloca ptr, align 8
  store ptr %0, ptr %2, align 8
  %3 = load ptr, ptr %2, align 8
  %4 = call noundef nonnull align 8 dereferenceable(8) ptr @_ZSt12__get_helperILm0EPN3gmx8internal23AnalysisDataStorageImplEJSt14default_deleteIS2_EEERKT0_RKSt11_Tuple_implIXT_EJS6_DpT1_EE(ptr noundef nonnull align 8 dereferenceable(8) %3) #12
  ret ptr %4
}

; Function Attrs: mustprogress nounwind uwtable
define linkonce_odr noundef ptr @_ZNKSt15__uniq_ptr_implIN3gmx8internal23AnalysisDataStorageImplESt14default_deleteIS2_EE6_M_ptrEv(ptr noundef nonnull align 8 dereferenceable(8) %0) #0 comdat align 2 {
  %2 = alloca ptr, align 8
  store ptr %0, ptr %2, align 8
  %3 = load ptr, ptr %2, align 8
  %4 = getelementptr inbounds %"class.std::__uniq_ptr_impl.88", ptr %3, i32 0, i32 0
  %5 = call noundef nonnull align 8 dereferenceable(8) ptr @_ZSt3getILm0EJPN3gmx8internal23AnalysisDataStorageImplESt14default_deleteIS2_EEERKNSt13tuple_elementIXT_ESt5tupleIJDpT0_EEE4typeERKSA_(ptr noundef nonnull align 8 dereferenceable(8) %4) #12
  %6 = load ptr, ptr %5, align 8
  ret ptr %6
}

; Function Attrs: mustprogress nounwind uwtable
define linkonce_odr noundef ptr @_ZNKSt10unique_ptrIN3gmx8internal23AnalysisDataStorageImplESt14default_deleteIS2_EE3getEv(ptr noundef nonnull align 8 dereferenceable(8) %0) #0 comdat align 2 {
  %2 = alloca ptr, align 8
  store ptr %0, ptr %2, align 8
  %3 = load ptr, ptr %2, align 8
  %4 = getelementptr inbounds %"class.std::unique_ptr.86", ptr %3, i32 0, i32 0
  %5 = call noundef ptr @_ZNKSt15__uniq_ptr_implIN3gmx8internal23AnalysisDataStorageImplESt14default_deleteIS2_EE6_M_ptrEv(ptr noundef nonnull align 8 dereferenceable(8) %4) #12
  ret ptr %5
}

; Function Attrs: mustprogress nounwind uwtable
define linkonce_odr noundef ptr @_ZNKSt10unique_ptrIN3gmx8internal23AnalysisDataStorageImplESt14default_deleteIS2_EEptEv(ptr noundef nonnull align 8 dereferenceable(8) %0) #0 comdat align 2 {
  %2 = alloca ptr, align 8
  store ptr %0, ptr %2, align 8
  %3 = load ptr, ptr %2, align 8
  %4 = call noundef ptr @_ZNKSt10unique_ptrIN3gmx8internal23AnalysisDataStorageImplESt14default_deleteIS2_EE3getEv(ptr noundef nonnull align 8 dereferenceable(8) %3) #12
  ret ptr %4
}

; Function Attrs: mustprogress nounwind uwtable
define linkonce_odr noundef i32 @_ZNSt14numeric_limitsIiE3maxEv() #0 comdat align 2 {
  ret i32 2147483647
}

; Function Attrs: mustprogress nounwind uwtable
define noundef zeroext i1 @_ZN3gmx19AnalysisDataStorage14requestStorageEi(ptr noundef nonnull align 8 dereferenceable(8) %0, i32 noundef %1) #0 align 2 {
  %3 = alloca i1, align 1
  %4 = alloca ptr, align 8
  %5 = alloca i32, align 4
  store ptr %0, ptr %4, align 8
  store i32 %1, ptr %5, align 4
  %6 = load ptr, ptr %4, align 8
  %7 = load i32, ptr %5, align 4
  %8 = icmp eq i32 %7, -1
  br i1 %8, label %9, label %14

9:                                                ; preds = %2
  %10 = call noundef i32 @_ZNSt14numeric_limitsIiE3maxEv() #12
  %11 = getelementptr inbounds %"class.gmx::AnalysisDataStorage", ptr %6, i32 0, i32 0
  %12 = call noundef ptr @_ZNKSt10unique_ptrIN3gmx8internal23AnalysisDataStorageImplESt14default_deleteIS2_EEptEv(ptr noundef nonnull align 8 dereferenceable(8) %11) #12
  %13 = getelementptr inbounds %"class.gmx::internal::AnalysisDataStorageImpl", ptr %12, i32 0, i32 2
  store i32 %10, ptr %13, align 8
  store i1 true, ptr %3, align 1
  br label %27

14:                                               ; preds = %2
  %15 = load i32, ptr %5, align 4
  %16 = getelementptr inbounds %"class.gmx::AnalysisDataStorage", ptr %6, i32 0, i32 0
  %17 = call noundef ptr @_ZNKSt10unique_ptrIN3gmx8internal23AnalysisDataStorageImplESt14default_deleteIS2_EEptEv(ptr noundef nonnull align 8 dereferenceable(8) %16) #12
  %18 = getelementptr inbounds %"class.gmx::internal::AnalysisDataStorageImpl", ptr %17, i32 0, i32 2
  %19 = load i32, ptr %18, align 8
  %20 = icmp slt i32 %15, %19
  br i1 %20, label %21, label %22

21:                                               ; preds = %14
  store i1 true, ptr %3, align 1
  br label %27

22:                                               ; preds = %14
  %23 = load i32, ptr %5, align 4
  %24 = getelementptr inbounds %"class.gmx::AnalysisDataStorage", ptr %6, i32 0, i32 0
  %25 = call noundef ptr @_ZNKSt10unique_ptrIN3gmx8internal23AnalysisDataStorageImplESt14default_deleteIS2_EEptEv(ptr noundef nonnull align 8 dereferenceable(8) %24) #12
  %26 = getelementptr inbounds %"class.gmx::internal::AnalysisDataStorageImpl", ptr %25, i32 0, i32 2
  store i32 %23, ptr %26, align 8
  store i1 true, ptr %3, align 1
  br label %27

27:                                               ; preds = %22, %21, %9
  %28 = load i1, ptr %3, align 1
  ret i1 %28
}