; Function Attrs: mustprogress nofree norecurse nosync nounwind willreturn memory(readwrite, inaccessiblemem: none) uwtable
define noundef zeroext i1 @_ZN3gmx19AnalysisDataStorage14requestStorageEi(ptr nocapture noundef nonnull readonly align 8 dereferenceable(8) %0, i32 noundef %1) local_unnamed_addr #12 align 2 {
  %3 = icmp eq i32 %1, -1
  %4 = load ptr, ptr %0, align 8
  %5 = getelementptr inbounds i8, ptr %4, i64 16
  br i1 %3, label %.sink.split, label %6

6:                                                ; preds = %2
  %7 = load i32, ptr %5, align 8
  %8 = icmp sgt i32 %7, %1
  br i1 %8, label %9, label %.sink.split

.sink.split:                                      ; preds = %6, %2
  %.sink = phi i32 [ 2147483647, %2 ], [ %1, %6 ]
  store i32 %.sink, ptr %5, align 8
  br label %9

9:                                                ; preds = %.sink.split, %6
  ret i1 true
}